; Function Attrs: mustprogress uwtable
define hidden void @_ZN4cvc58internal6theory11quantifiers15SygusEnumerator16TermEnumMasterFvC2Ev(ptr nocapture noundef nonnull writeonly align 8 dereferenceable(28) %this) unnamed_addr #3 align 2 personality ptr @__gxx_personality_v0 {
entry:
  store ptr getelementptr inbounds ({ [6 x ptr] }, ptr @_ZTVN4cvc58internal6theory11quantifiers15SygusEnumerator8TermEnumE, i64 0, i32 0, i64 2), ptr %this, align 8
  %d_se.i = getelementptr inbounds i8, ptr %this, i64 8
  store ptr null, ptr %d_se.i, align 8
  %0 = load atomic i8, ptr @_ZGVZN4cvc58internal4expr9NodeValue4nullEvE6s_null acquire, align 8
  %guard.uninitialized.i.i.i = icmp eq i8 %0, 0
  br i1 %guard.uninitialized.i.i.i, label %init.check.i.i.i, label %_ZN4cvc58internal6theory11quantifiers15SygusEnumerator8TermEnumC2Ev.exit, !prof !4

init.check.i.i.i:                                 ; preds = %entry
  %1 = tail call i32 @__cxa_guard_acquire(ptr nonnull @_ZGVZN4cvc58internal4expr9NodeValue4nullEvE6s_null) #22
  %tobool.not.i.i.i = icmp eq i32 %1, 0
  br i1 %tobool.not.i.i.i, label %_ZN4cvc58internal6theory11quantifiers15SygusEnumerator8TermEnumC2Ev.exit, label %init.i.i.i

init.i.i.i:                                       ; preds = %init.check.i.i.i
  %call.i.i.i = invoke noalias noundef nonnull dereferenceable(16) ptr @_Znwm(i64 noundef 16) #23
          to label %invoke.cont.i.i.i unwind label %lpad.i.i.i

invoke.cont.i.i.i:                                ; preds = %init.i.i.i
  store i64 1152920405095219200, ptr %call.i.i.i, align 8
  %d_kind.i.i.i.i = getelementptr inbounds i8, ptr %call.i.i.i, i64 8
  store i16 0, ptr %d_kind.i.i.i.i, align 8
  %d_nchildren.i.i.i.i = getelementptr inbounds i8, ptr %call.i.i.i, i64 12
  store i32 0, ptr %d_nchildren.i.i.i.i, align 4
  store ptr %call.i.i.i, ptr @_ZZN4cvc58internal4expr9NodeValue4nullEvE6s_null, align 8
  tail call void @__cxa_guard_release(ptr nonnull @_ZGVZN4cvc58internal4expr9NodeValue4nullEvE6s_null) #22
  br label %_ZN4cvc58internal6theory11quantifiers15SygusEnumerator8TermEnumC2Ev.exit

lpad.i.i.i:                                       ; preds = %init.i.i.i
  %2 = landingpad { ptr, i32 }
          cleanup
  tail call void @__cxa_guard_abort(ptr nonnull @_ZGVZN4cvc58internal4expr9NodeValue4nullEvE6s_null) #22
  resume { ptr, i32 } %2

_ZN4cvc58internal6theory11quantifiers15SygusEnumerator8TermEnumC2Ev.exit: ; preds = %entry, %init.check.i.i.i, %invoke.cont.i.i.i
  %d_tn.i = getelementptr inbounds i8, ptr %this, i64 16
  %3 = load ptr, ptr @_ZZN4cvc58internal4expr9NodeValue4nullEvE6s_null, align 8
  store ptr %3, ptr %d_tn.i, align 8
  %d_currSize.i = getelementptr inbounds i8, ptr %this, i64 24
  store i32 0, ptr %d_currSize.i, align 8
  store ptr getelementptr inbounds ({ [6 x ptr] }, ptr @_ZTVN4cvc58internal6theory11quantifiers15SygusEnumerator16TermEnumMasterFvE, i64 0, i32 0, i64 2), ptr %this, align 8
  ret void
}